target datalayout = "e-m:e-p270:32:32-p271:32:32-p272:64:64-i64:64-i128:128-f80:128-n8:16:32:64-S128"
target triple = "x86_64-pc-linux-gnu"

%struct.node_info = type { ptr, ptr, i16, i64, ptr, i16, i16, i32, i32, i64, i16, i16, ptr, ptr, ptr, ptr, ptr, ptr, ptr, ptr, ptr, ptr, i64, ptr, i64, ptr, i32, ptr, ptr, i32, ptr, i32, ptr, i16, i64, i16, ptr, ptr, ptr, i64, i32, i64, ptr, ptr, i64, i16, i16, i32, i32, ptr, ptr }
%struct.node_info_msg = type { i64, i32, ptr }

; Function Attrs: nounwind uwtable
define dso_local i32 @get_cluster_node_offset(ptr noundef %0, ptr noundef %1) #0 {
  %3 = alloca i32, align 4
  %4 = alloca ptr, align 8
  %5 = alloca ptr, align 8
  %6 = alloca i32, align 4
  %7 = alloca i32, align 4
  store ptr %0, ptr %4, align 8
  store ptr %1, ptr %5, align 8
  call void @llvm.lifetime.start.p0(i64 4, ptr %6) #11
  store i32 0, ptr %6, align 4
  br label %8

8:                                                ; preds = %29, %2
  %9 = load i32, ptr %6, align 4
  %10 = load ptr, ptr %5, align 8
  %11 = getelementptr inbounds nuw %struct.node_info_msg, ptr %10, i32 0, i32 1
  %12 = load i32, ptr %11, align 8
  %13 = icmp ult i32 %9, %12
  br i1 %13, label %14, label %32

14:                                               ; preds = %8
  %15 = load ptr, ptr %4, align 8
  %16 = load ptr, ptr %5, align 8
  %17 = getelementptr inbounds nuw %struct.node_info_msg, ptr %16, i32 0, i32 2
  %18 = load ptr, ptr %17, align 8
  %19 = load i32, ptr %6, align 4
  %20 = sext i32 %19 to i64
  %21 = getelementptr inbounds %struct.node_info, ptr %18, i64 %20
  %22 = getelementptr inbounds nuw %struct.node_info, ptr %21, i32 0, i32 4
  %23 = load ptr, ptr %22, align 8
  %24 = call i32 @xstrcmp(ptr noundef %15, ptr noundef %23)
  %25 = icmp ne i32 %24, 0
  br i1 %25, label %28, label %26

26:                                               ; preds = %14
  %27 = load i32, ptr %6, align 4
  store i32 %27, ptr %3, align 4
  store i32 1, ptr %7, align 4
  br label %33

28:                                               ; preds = %14
  br label %29

29:                                               ; preds = %28
  %30 = load i32, ptr %6, align 4
  %31 = add nsw i32 %30, 1
  store i32 %31, ptr %6, align 4
  br label %8, !llvm.loop !71

32:                                               ; preds = %8
  store i32 0, ptr %3, align 4
  store i32 1, ptr %7, align 4
  br label %33

33:                                               ; preds = %32, %26
  call void @llvm.lifetime.end.p0(i64 4, ptr %6) #11
  %34 = load i32, ptr %3, align 4
  ret i32 %34
}