; Function Attrs: nounwind uwtable
define dso_local range(i32 0, -1) i32 @get_cluster_node_offset(ptr noundef %0, ptr noundef readonly captures(none) %1) local_unnamed_addr #1 {
  %3 = getelementptr inbounds nuw i8, ptr %1, i64 16
  %4 = getelementptr inbounds nuw i8, ptr %1, i64 8
  %5 = load i32, ptr %4, align 8
  %.not11 = icmp eq i32 %5, 0
  br i1 %.not11, label %._crit_edge, label %.lr.ph

.lr.ph:                                           ; preds = %2, %10
  %indvars.iv = phi i64 [ %indvars.iv.next, %10 ], [ 0, %2 ]
  %6 = load ptr, ptr %3, align 8
  %7 = getelementptr inbounds nuw %struct.node_info, ptr %6, i64 %indvars.iv, i32 4
  %8 = load ptr, ptr %7, align 8
  %9 = tail call i32 @xstrcmp(ptr noundef %0, ptr noundef %8) #24
  %.not = icmp eq i32 %9, 0
  br i1 %.not, label %._crit_edge.loopexit.split.loop.exit13, label %10

10:                                               ; preds = %.lr.ph
  %indvars.iv.next = add nuw nsw i64 %indvars.iv, 1
  %11 = load i32, ptr %4, align 8
  %12 = zext i32 %11 to i64
  %13 = icmp samesign ult i64 %indvars.iv.next, %12
  br i1 %13, label %.lr.ph, label %._crit_edge, !llvm.loop !72

._crit_edge.loopexit.split.loop.exit13:           ; preds = %.lr.ph
  %14 = trunc nuw nsw i64 %indvars.iv to i32
  br label %._crit_edge

._crit_edge:                                      ; preds = %10, %._crit_edge.loopexit.split.loop.exit13, %2
  %.07 = phi i32 [ 0, %2 ], [ %14, %._crit_edge.loopexit.split.loop.exit13 ], [ 0, %10 ]
  ret i32 %.07
}